; Function Attrs: mustprogress uwtable
define noundef ptr @ggml_backend_alloc_buffer(ptr noundef readonly captures(none) %0, i64 noundef %1) local_unnamed_addr #0 {
  %3 = getelementptr inbounds nuw i8, ptr %0, i64 112
  %4 = load ptr, ptr %3, align 8, !tbaa !55
  %5 = getelementptr inbounds nuw i8, ptr %4, i64 48
  %6 = load ptr, ptr %5, align 8, !tbaa !56
  %7 = tail call noundef ptr %6(ptr noundef %4)
  %8 = icmp eq i64 %1, 0
  br i1 %8, label %9, label %13

9:                                                ; preds = %2
  %10 = tail call noalias noundef nonnull dereferenceable(104) ptr @_Znwm(i64 noundef 104) #22
  tail call void @llvm.memset.p0.i64(ptr noundef nonnull align 16 dereferenceable(72) %10, i8 0, i64 72, i1 false)
  %11 = getelementptr inbounds nuw i8, ptr %10, i64 72
  store ptr %7, ptr %11, align 8, !tbaa !10
  %12 = getelementptr inbounds nuw i8, ptr %10, i64 80
  tail call void @llvm.memset.p0.i64(ptr noundef nonnull align 16 dereferenceable(20) %12, i8 0, i64 20, i1 false)
  br label %ggml_backend_buft_alloc_buffer.exit

13:                                               ; preds = %2
  %14 = getelementptr inbounds nuw i8, ptr %7, i64 8
  %15 = load ptr, ptr %14, align 8, !tbaa !16
  %16 = tail call noundef ptr %15(ptr noundef %7, i64 noundef %1)
  br label %ggml_backend_buft_alloc_buffer.exit

ggml_backend_buft_alloc_buffer.exit:              ; preds = %9, %13
  %.0.i = phi ptr [ %10, %9 ], [ %16, %13 ]
  ret ptr %.0.i
}